target datalayout = "e-m:e-p270:32:32-p271:32:32-p272:64:64-i64:64-i128:128-f80:128-n8:16:32:64-S128"
target triple = "x86_64-unknown-linux-gnu"

%struct.MigrationIncomingState = type { ptr, [2 x ptr], ptr, ptr, %struct.QemuSemaphore, %struct.QemuEvent, %struct.AnnounceTimer, i64, i8, %struct.QemuThread, i8, i8, %struct.QemuThread, i32, i32, ptr, %struct.QemuMutex, ptr, i32, ptr, %struct.QemuSemaphore, %struct.QemuThread, i32, %struct.QemuMutex, ptr, ptr, ptr, ptr, i32, ptr, ptr, %struct.QemuSemaphore, ptr, %struct.QemuSemaphore, %struct.QemuSemaphore, %struct.QemuSemaphore, ptr, ptr, i32, %struct.QemuMutex, %struct.QemuCond, i32 }
%struct.QemuEvent = type { i32, i8 }
%struct.AnnounceTimer = type { ptr, %struct.AnnounceParameters, i32, i32 }
%struct.AnnounceParameters = type { i64, i64, i64, i64, i8, ptr, ptr }
%struct.QemuThread = type { i64 }
%struct.QemuSemaphore = type { %struct.QemuMutex, %struct.QemuCond, i32 }
%struct.QemuMutex = type { %union.pthread_mutex_t, i8 }
%union.pthread_mutex_t = type { %struct.__pthread_mutex_s }
%struct.__pthread_mutex_s = type { i32, i32, i32, i32, i32, i16, i16, %struct.__pthread_internal_list }
%struct.__pthread_internal_list = type { ptr, ptr }
%struct.QemuCond = type { %union.pthread_cond_t, i8 }
%union.pthread_cond_t = type { %struct.__pthread_cond_s }
%struct.__pthread_cond_s = type { %union.__atomic_wide_counter, %union.__atomic_wide_counter, [2 x i32], [2 x i32], i32, i32, [2 x i32] }
%union.__atomic_wide_counter = type { i64 }
%struct.QemuLockable = type { ptr, ptr, ptr }
%struct.timeval = type { i64, i64 }

@trace_events_enabled_count = external global i32, align 4
@message_with_timestamp = external global i8, align 1
@qemu_loglevel = external global i32, align 4
@_TRACE_MIGRATE_SEND_RP_MESSAGE_DSTATE = external global i16, align 2
@.str.51 = private unnamed_addr constant [49 x i8] c"%d@%zu.%06zu:migrate_send_rp_message %d: len %d\0A\00", align 1
@.str.52 = private unnamed_addr constant [36 x i8] c"migrate_send_rp_message %d: len %d\0A\00", align 1

; Function Attrs: nounwind sspstrong uwtable
define internal void @qemu_lockable_unlock(ptr noundef %x) #0 {
entry:
  %x.addr = alloca ptr, align 8
  store ptr %x, ptr %x.addr, align 8
  %0 = load ptr, ptr %x.addr, align 8
  %unlock = getelementptr inbounds %struct.QemuLockable, ptr %0, i32 0, i32 2
  %1 = load ptr, ptr %unlock, align 8
  %2 = load ptr, ptr %x.addr, align 8
  %object = getelementptr inbounds %struct.QemuLockable, ptr %2, i32 0, i32 0
  %3 = load ptr, ptr %object, align 8
  call void %1(ptr noundef %3)
  ret void
}

; Function Attrs: nounwind sspstrong uwtable
define internal void @qemu_lockable_auto_unlock(ptr noundef %x) #0 {
entry:
  %x.addr = alloca ptr, align 8
  store ptr %x, ptr %x.addr, align 8
  %0 = load ptr, ptr %x.addr, align 8
  %tobool = icmp ne ptr %0, null
  br i1 %tobool, label %if.then, label %if.end

if.then:                                          ; preds = %entry
  %1 = load ptr, ptr %x.addr, align 8
  call void @qemu_lockable_unlock(ptr noundef %1)
  br label %if.end

if.end:                                           ; preds = %if.then, %entry
  ret void
}

; Function Attrs: nounwind sspstrong uwtable
define internal zeroext i1 @qemu_loglevel_mask(i32 noundef %mask) #0 {
entry:
  %mask.addr = alloca i32, align 4
  store i32 %mask, ptr %mask.addr, align 4
  %0 = load i32, ptr @qemu_loglevel, align 4
  %1 = load i32, ptr %mask.addr, align 4
  %and = and i32 %0, %1
  %cmp = icmp ne i32 %and, 0
  ret i1 %cmp
}

; Function Attrs: nounwind sspstrong uwtable
define internal void @glib_autoptr_clear_QemuLockable(ptr noundef %_ptr) #0 {
entry:
  %_ptr.addr = alloca ptr, align 8
  store ptr %_ptr, ptr %_ptr.addr, align 8
  %0 = load ptr, ptr %_ptr.addr, align 8
  %tobool = icmp ne ptr %0, null
  br i1 %tobool, label %if.then, label %if.end

if.then:                                          ; preds = %entry
  %1 = load ptr, ptr %_ptr.addr, align 8
  call void @qemu_lockable_auto_unlock(ptr noundef %1)
  br label %if.end

if.end:                                           ; preds = %if.then, %entry
  ret void
}

; Function Attrs: nounwind sspstrong uwtable
define internal void @qemu_lockable_lock(ptr noundef %x) #0 {
entry:
  %x.addr = alloca ptr, align 8
  store ptr %x, ptr %x.addr, align 8
  %0 = load ptr, ptr %x.addr, align 8
  %lock = getelementptr inbounds %struct.QemuLockable, ptr %0, i32 0, i32 1
  %1 = load ptr, ptr %lock, align 8
  %2 = load ptr, ptr %x.addr, align 8
  %object = getelementptr inbounds %struct.QemuLockable, ptr %2, i32 0, i32 0
  %3 = load ptr, ptr %object, align 8
  call void %1(ptr noundef %3)
  ret void
}

; Function Attrs: nounwind sspstrong uwtable
define internal void @_nocheck__trace_migrate_send_rp_message(i32 noundef %msg_type, i16 noundef zeroext %len) #0 {
entry:
  %msg_type.addr = alloca i32, align 4
  %len.addr = alloca i16, align 2
  %_now = alloca %struct.timeval, align 8
  store i32 %msg_type, ptr %msg_type.addr, align 4
  store i16 %len, ptr %len.addr, align 2
  %0 = load i32, ptr @trace_events_enabled_count, align 4
  %tobool = icmp ne i32 %0, 0
  %lnot = xor i1 %tobool, true
  %lnot1 = xor i1 %lnot, true
  %lnot.ext = zext i1 %lnot1 to i32
  %conv = sext i32 %lnot.ext to i64
  %tobool2 = icmp ne i64 %conv, 0
  br i1 %tobool2, label %land.lhs.true, label %if.end13

land.lhs.true:                                    ; preds = %entry
  %1 = load i16, ptr @_TRACE_MIGRATE_SEND_RP_MESSAGE_DSTATE, align 2
  %conv3 = zext i16 %1 to i32
  %tobool4 = icmp ne i32 %conv3, 0
  br i1 %tobool4, label %land.lhs.true5, label %if.end13

land.lhs.true5:                                   ; preds = %land.lhs.true
  %call = call zeroext i1 @qemu_loglevel_mask(i32 noundef 32768)
  br i1 %call, label %if.then, label %if.end13

if.then:                                          ; preds = %land.lhs.true5
  %2 = load i8, ptr @message_with_timestamp, align 1
  %tobool7 = trunc i8 %2 to i1
  br i1 %tobool7, label %if.then8, label %if.else

if.then8:                                         ; preds = %if.then
  %call9 = call i32 @gettimeofday(ptr noundef %_now, ptr noundef null) #18
  %call10 = call i32 @qemu_get_thread_id()
  %tv_sec = getelementptr inbounds %struct.timeval, ptr %_now, i32 0, i32 0
  %3 = load i64, ptr %tv_sec, align 8
  %tv_usec = getelementptr inbounds %struct.timeval, ptr %_now, i32 0, i32 1
  %4 = load i64, ptr %tv_usec, align 8
  %5 = load i32, ptr %msg_type.addr, align 4
  %6 = load i16, ptr %len.addr, align 2
  %conv11 = zext i16 %6 to i32
  call void (ptr, ...) @qemu_log(ptr noundef @.str.51, i32 noundef %call10, i64 noundef %3, i64 noundef %4, i32 noundef %5, i32 noundef %conv11)
  br label %if.end

if.else:                                          ; preds = %if.then
  %7 = load i32, ptr %msg_type.addr, align 4
  %8 = load i16, ptr %len.addr, align 2
  %conv12 = zext i16 %8 to i32
  call void (ptr, ...) @qemu_log(ptr noundef @.str.52, i32 noundef %7, i32 noundef %conv12)
  br label %if.end

if.end:                                           ; preds = %if.else, %if.then8
  br label %if.end13

if.end13:                                         ; preds = %if.end, %land.lhs.true5, %land.lhs.true, %entry
  ret void
}

; Function Attrs: nounwind sspstrong uwtable
define internal void @glib_autoptr_cleanup_QemuLockable(ptr noundef %_ptr) #0 {
entry:
  %_ptr.addr = alloca ptr, align 8
  store ptr %_ptr, ptr %_ptr.addr, align 8
  %0 = load ptr, ptr %_ptr.addr, align 8
  %1 = load ptr, ptr %0, align 8
  call void @glib_autoptr_clear_QemuLockable(ptr noundef %1)
  ret void
}

; Function Attrs: nounwind sspstrong uwtable
define internal ptr @qemu_lockable_auto_lock(ptr noundef %x) #0 {
entry:
  %x.addr = alloca ptr, align 8
  store ptr %x, ptr %x.addr, align 8
  %0 = load ptr, ptr %x.addr, align 8
  call void @qemu_lockable_lock(ptr noundef %0)
  %1 = load ptr, ptr %x.addr, align 8
  ret ptr %1
}

; Function Attrs: nounwind sspstrong uwtable
define internal void @trace_migrate_send_rp_message(i32 noundef %msg_type, i16 noundef zeroext %len) #0 {
entry:
  %msg_type.addr = alloca i32, align 4
  %len.addr = alloca i16, align 2
  store i32 %msg_type, ptr %msg_type.addr, align 4
  store i16 %len, ptr %len.addr, align 2
  %0 = load i32, ptr %msg_type.addr, align 4
  %1 = load i16, ptr %len.addr, align 2
  call void @_nocheck__trace_migrate_send_rp_message(i32 noundef %0, i16 noundef zeroext %1)
  ret void
}

; Function Attrs: nounwind sspstrong uwtable
define internal i32 @migrate_send_rp_message(ptr noundef %mis, i32 noundef %message_type, i16 noundef zeroext %len, ptr noundef %data) #0 {
entry:
  %x.addr.i = alloca ptr, align 8
  %lockable.addr.i = alloca ptr, align 8
  %retval = alloca i32, align 4
  %mis.addr = alloca ptr, align 8
  %message_type.addr = alloca i32, align 4
  %len.addr = alloca i16, align 2
  %data.addr = alloca ptr, align 8
  %ret = alloca i32, align 4
  %qemu_lockable_auto6 = alloca ptr, align 8
  %.compoundliteral = alloca %struct.QemuLockable, align 8
  %cleanup.dest.slot = alloca i32, align 4
  store ptr %mis, ptr %mis.addr, align 8
  store i32 %message_type, ptr %message_type.addr, align 4
  store i16 %len, ptr %len.addr, align 2
  store ptr %data, ptr %data.addr, align 8
  store i32 0, ptr %ret, align 4
  %0 = load i32, ptr %message_type.addr, align 4
  %1 = load i16, ptr %len.addr, align 2
  call void @trace_migrate_send_rp_message(i32 noundef %0, i16 noundef zeroext %1)
  %2 = load ptr, ptr %mis.addr, align 8
  %rp_mutex = getelementptr inbounds %struct.MigrationIncomingState, ptr %2, i32 0, i32 16
  %object = getelementptr inbounds %struct.QemuLockable, ptr %.compoundliteral, i32 0, i32 0
  %3 = load ptr, ptr %mis.addr, align 8
  %rp_mutex1 = getelementptr inbounds %struct.MigrationIncomingState, ptr %3, i32 0, i32 16
  store ptr %rp_mutex1, ptr %object, align 8
  %lock = getelementptr inbounds %struct.QemuLockable, ptr %.compoundliteral, i32 0, i32 1
  store ptr @qemu_mutex_lock, ptr %lock, align 8
  %unlock = getelementptr inbounds %struct.QemuLockable, ptr %.compoundliteral, i32 0, i32 2
  store ptr @qemu_mutex_unlock, ptr %unlock, align 8
  store ptr %rp_mutex, ptr %x.addr.i, align 8
  store ptr %.compoundliteral, ptr %lockable.addr.i, align 8
  %4 = load ptr, ptr %x.addr.i, align 8
  %tobool.i = icmp ne ptr %4, null
  br i1 %tobool.i, label %cond.true.i, label %cond.false.i

cond.true.i:                                      ; preds = %entry
  %5 = load ptr, ptr %lockable.addr.i, align 8
  br label %qemu_make_lockable.exit

cond.false.i:                                     ; preds = %entry
  br label %qemu_make_lockable.exit

qemu_make_lockable.exit:                          ; preds = %cond.false.i, %cond.true.i
  %cond.i = phi ptr [ %5, %cond.true.i ], [ null, %cond.false.i ]
  %call2 = call ptr @qemu_lockable_auto_lock(ptr noundef %cond.i)
  store ptr %call2, ptr %qemu_lockable_auto6, align 8
  %6 = load ptr, ptr %mis.addr, align 8
  %to_src_file = getelementptr inbounds %struct.MigrationIncomingState, ptr %6, i32 0, i32 15
  %7 = load ptr, ptr %to_src_file, align 8
  %tobool = icmp ne ptr %7, null
  br i1 %tobool, label %if.end, label %if.then

if.then:                                          ; preds = %qemu_make_lockable.exit
  store i32 -5, ptr %ret, align 4
  %8 = load i32, ptr %ret, align 4
  store i32 %8, ptr %retval, align 4
  store i32 1, ptr %cleanup.dest.slot, align 4
  br label %cleanup

if.end:                                           ; preds = %qemu_make_lockable.exit
  %9 = load ptr, ptr %mis.addr, align 8
  %to_src_file3 = getelementptr inbounds %struct.MigrationIncomingState, ptr %9, i32 0, i32 15
  %10 = load ptr, ptr %to_src_file3, align 8
  %11 = load i32, ptr %message_type.addr, align 4
  call void @qemu_put_be16(ptr noundef %10, i32 noundef %11)
  %12 = load ptr, ptr %mis.addr, align 8
  %to_src_file4 = getelementptr inbounds %struct.MigrationIncomingState, ptr %12, i32 0, i32 15
  %13 = load ptr, ptr %to_src_file4, align 8
  %14 = load i16, ptr %len.addr, align 2
  %conv = zext i16 %14 to i32
  call void @qemu_put_be16(ptr noundef %13, i32 noundef %conv)
  %15 = load ptr, ptr %mis.addr, align 8
  %to_src_file5 = getelementptr inbounds %struct.MigrationIncomingState, ptr %15, i32 0, i32 15
  %16 = load ptr, ptr %to_src_file5, align 8
  %17 = load ptr, ptr %data.addr, align 8
  %18 = load i16, ptr %len.addr, align 2
  %conv6 = zext i16 %18 to i64
  call void @qemu_put_buffer(ptr noundef %16, ptr noundef %17, i64 noundef %conv6)
  %19 = load ptr, ptr %mis.addr, align 8
  %to_src_file7 = getelementptr inbounds %struct.MigrationIncomingState, ptr %19, i32 0, i32 15
  %20 = load ptr, ptr %to_src_file7, align 8
  %call8 = call i32 @qemu_fflush(ptr noundef %20)
  store i32 %call8, ptr %retval, align 4
  store i32 1, ptr %cleanup.dest.slot, align 4
  br label %cleanup

cleanup:                                          ; preds = %if.end, %if.then
  call void @glib_autoptr_cleanup_QemuLockable(ptr noundef %qemu_lockable_auto6)
  %21 = load i32, ptr %retval, align 4
  ret i32 %21
}