; Function Attrs: nounwind sspstrong uwtable
define internal fastcc i32 @migrate_send_rp_message(ptr noundef %mis, i32 noundef range(i32 1, 8) %message_type, i16 noundef zeroext %len, ptr noundef %data) unnamed_addr #0 {
entry:
  %_now.i.i = alloca %struct.timeval, align 8
  call void @llvm.lifetime.start.p0(i64 16, ptr nonnull %_now.i.i)
  %0 = load i32, ptr @trace_events_enabled_count, align 4
  %tobool.i.i = icmp ne i32 %0, 0
  %1 = load i16, ptr @_TRACE_MIGRATE_SEND_RP_MESSAGE_DSTATE, align 2
  %tobool4.i.i = icmp ne i16 %1, 0
  %or.cond.i.i = select i1 %tobool.i.i, i1 %tobool4.i.i, i1 false
  br i1 %or.cond.i.i, label %land.lhs.true5.i.i, label %trace_migrate_send_rp_message.exit

land.lhs.true5.i.i:                               ; preds = %entry
  %2 = load i32, ptr @qemu_loglevel, align 4
  %and.i.i.i = and i32 %2, 32768
  %cmp.i.not.i.i = icmp eq i32 %and.i.i.i, 0
  br i1 %cmp.i.not.i.i, label %trace_migrate_send_rp_message.exit, label %if.then.i.i

if.then.i.i:                                      ; preds = %land.lhs.true5.i.i
  %3 = load i8, ptr @message_with_timestamp, align 1
  %tobool7.i.i = trunc i8 %3 to i1
  br i1 %tobool7.i.i, label %if.then8.i.i, label %if.else.i.i

if.then8.i.i:                                     ; preds = %if.then.i.i
  %call9.i.i = call i32 @gettimeofday(ptr noundef nonnull %_now.i.i, ptr noundef null) #19
  %call10.i.i = tail call i32 @qemu_get_thread_id() #19
  %4 = load i64, ptr %_now.i.i, align 8
  %tv_usec.i.i = getelementptr inbounds nuw i8, ptr %_now.i.i, i64 8
  %5 = load i64, ptr %tv_usec.i.i, align 8
  %conv11.i.i = zext i16 %len to i32
  tail call void (ptr, ...) @qemu_log(ptr noundef nonnull @.str.51, i32 noundef %call10.i.i, i64 noundef %4, i64 noundef %5, i32 noundef range(i32 1, 8) %message_type, i32 noundef %conv11.i.i) #19
  br label %trace_migrate_send_rp_message.exit

if.else.i.i:                                      ; preds = %if.then.i.i
  %conv12.i.i = zext i16 %len to i32
  tail call void (ptr, ...) @qemu_log(ptr noundef nonnull @.str.52, i32 noundef range(i32 1, 8) %message_type, i32 noundef %conv12.i.i) #19
  br label %trace_migrate_send_rp_message.exit

trace_migrate_send_rp_message.exit:               ; preds = %entry, %land.lhs.true5.i.i, %if.then8.i.i, %if.else.i.i
  call void @llvm.lifetime.end.p0(i64 16, ptr nonnull %_now.i.i)
  %rp_mutex = getelementptr inbounds nuw i8, ptr %mis, i64 288
  %6 = load atomic i64, ptr @qemu_mutex_lock_func monotonic, align 8
  %7 = inttoptr i64 %6 to ptr
  tail call void %7(ptr noundef nonnull %rp_mutex, ptr noundef nonnull @.str.53, i32 noundef 122) #19
  %to_src_file = getelementptr inbounds nuw i8, ptr %mis, i64 280
  %8 = load ptr, ptr %to_src_file, align 8
  %tobool.not = icmp eq ptr %8, null
  br i1 %tobool.not, label %glib_autoptr_cleanup_QemuLockable.exit, label %if.end

if.end:                                           ; preds = %trace_migrate_send_rp_message.exit
  tail call void @qemu_put_be16(ptr noundef nonnull %8, i32 noundef %message_type) #19
  %9 = load ptr, ptr %to_src_file, align 8
  %conv = zext i16 %len to i32
  tail call void @qemu_put_be16(ptr noundef %9, i32 noundef %conv) #19
  %10 = load ptr, ptr %to_src_file, align 8
  %conv6 = zext i16 %len to i64
  tail call void @qemu_put_buffer(ptr noundef %10, ptr noundef %data, i64 noundef %conv6) #19
  %11 = load ptr, ptr %to_src_file, align 8
  %call8 = tail call i32 @qemu_fflush(ptr noundef %11) #19
  br label %glib_autoptr_cleanup_QemuLockable.exit

glib_autoptr_cleanup_QemuLockable.exit:           ; preds = %trace_migrate_send_rp_message.exit, %if.end
  %retval.0 = phi i32 [ %call8, %if.end ], [ -5, %trace_migrate_send_rp_message.exit ]
  tail call void @qemu_mutex_unlock_impl(ptr noundef nonnull %rp_mutex, ptr noundef nonnull @.str.53, i32 noundef 132) #19
  ret i32 %retval.0
}